; ModuleID = '20/1341.c'
source_filename = "20/1341.c"
target datalayout = "e-m:e-p270:32:32-p271:32:32-p272:64:64-i64:64-f80:128-n8:16:32:64-S128"
target triple = "x86_64-pc-linux-gnu"

@__const.plug.a = private unnamed_addr constant [11 x i32] [i32 0, i32 1, i32 2, i32 3, i32 4, i32 5, i32 6, i32 7, i32 8, i32 9, i32 0], align 16
@.str = private unnamed_addr constant [3 x i8] c"%c\00", align 1
@.str.1 = private unnamed_addr constant [3 x i8] c"%s\00", align 1
@.str.2 = private unnamed_addr constant [2 x i8] c"\0A\00", align 1
@.str.3 = private unnamed_addr constant [5 x i8] c"%s%s\00", align 1

; Function Attrs: noinline nounwind uwtable
define dso_local i32 @plug(i8* %0, i8* %1) #0 {
  %3 = alloca i8*, align 8
  %4 = alloca i8*, align 8
  %5 = alloca i32, align 4
  %6 = alloca i32, align 4
  %7 = alloca i32, align 4
  %8 = alloca i32, align 4
  %9 = alloca i32, align 4
  %10 = alloca [11 x i32], align 16
  %11 = alloca [11 x i8], align 1
  %12 = alloca i8, align 1
  store i8* %0, i8** %3, align 8
  store i8* %1, i8** %4, align 8
  %13 = bitcast [11 x i32]* %10 to i8*
  call void @llvm.memcpy.p0i8.p0i8.i64(i8* align 16 %13, i8* align 16 bitcast ([11 x i32]* @__const.plug.a to i8*), i64 44, i1 false)
  %14 = load i8*, i8** %3, align 8
  %15 = call i64 @strlen(i8* %14) #5
  %16 = trunc i64 %15 to i32
  store i32 %16, i32* %9, align 4
  %17 = getelementptr inbounds [11 x i8], [11 x i8]* %11, i64 0, i64 0
  %18 = load i8*, i8** %3, align 8
  %19 = call i8* @strcpy(i8* %17, i8* %18) #6
  store i32 0, i32* %6, align 4
  br label %20

20:                                               ; preds = %86, %2
  %21 = load i32, i32* %6, align 4
  %22 = load i32, i32* %9, align 4
  %23 = sub nsw i32 %22, 1
  %24 = icmp slt i32 %21, %23
  br i1 %24, label %25, label %89

25:                                               ; preds = %20
  store i32 0, i32* %5, align 4
  br label %26

26:                                               ; preds = %82, %25
  %27 = load i32, i32* %5, align 4
  %28 = load i32, i32* %9, align 4
  %29 = sub nsw i32 %28, 1
  %30 = load i32, i32* %6, align 4
  %31 = sub nsw i32 %29, %30
  %32 = icmp slt i32 %27, %31
  br i1 %32, label %33, label %85

33:                                               ; preds = %26
  %34 = load i32, i32* %5, align 4
  %35 = sext i32 %34 to i64
  %36 = getelementptr inbounds [11 x i8], [11 x i8]* %11, i64 0, i64 %35
  %37 = load i8, i8* %36, align 1
  %38 = sext i8 %37 to i32
  %39 = load i32, i32* %5, align 4
  %40 = add nsw i32 %39, 1
  %41 = sext i32 %40 to i64
  %42 = getelementptr inbounds [11 x i8], [11 x i8]* %11, i64 0, i64 %41
  %43 = load i8, i8* %42, align 1
  %44 = sext i8 %43 to i32
  %45 = icmp slt i32 %38, %44
  br i1 %45, label %46, label %81

46:                                               ; preds = %33
  %47 = load i32, i32* %5, align 4
  %48 = sext i32 %47 to i64
  %49 = getelementptr inbounds [11 x i32], [11 x i32]* %10, i64 0, i64 %48
  %50 = load i32, i32* %49, align 4
  store i32 %50, i32* %7, align 4
  %51 = load i32, i32* %5, align 4
  %52 = add nsw i32 %51, 1
  %53 = sext i32 %52 to i64
  %54 = getelementptr inbounds [11 x i32], [11 x i32]* %10, i64 0, i64 %53
  %55 = load i32, i32* %54, align 4
  %56 = load i32, i32* %5, align 4
  %57 = sext i32 %56 to i64
  %58 = getelementptr inbounds [11 x i32], [11 x i32]* %10, i64 0, i64 %57
  store i32 %55, i32* %58, align 4
  %59 = load i32, i32* %7, align 4
  %60 = load i32, i32* %5, align 4
  %61 = add nsw i32 %60, 1
  %62 = sext i32 %61 to i64
  %63 = getelementptr inbounds [11 x i32], [11 x i32]* %10, i64 0, i64 %62
  store i32 %59, i32* %63, align 4
  %64 = load i32, i32* %5, align 4
  %65 = sext i32 %64 to i64
  %66 = getelementptr inbounds [11 x i8], [11 x i8]* %11, i64 0, i64 %65
  %67 = load i8, i8* %66, align 1
  store i8 %67, i8* %12, align 1
  %68 = load i32, i32* %5, align 4
  %69 = add nsw i32 %68, 1
  %70 = sext i32 %69 to i64
  %71 = getelementptr inbounds [11 x i8], [11 x i8]* %11, i64 0, i64 %70
  %72 = load i8, i8* %71, align 1
  %73 = load i32, i32* %5, align 4
  %74 = sext i32 %73 to i64
  %75 = getelementptr inbounds [11 x i8], [11 x i8]* %11, i64 0, i64 %74
  store i8 %72, i8* %75, align 1
  %76 = load i8, i8* %12, align 1
  %77 = load i32, i32* %5, align 4
  %78 = add nsw i32 %77, 1
  %79 = sext i32 %78 to i64
  %80 = getelementptr inbounds [11 x i8], [11 x i8]* %11, i64 0, i64 %79
  store i8 %76, i8* %80, align 1
  br label %81

81:                                               ; preds = %46, %33
  br label %82

82:                                               ; preds = %81
  %83 = load i32, i32* %5, align 4
  %84 = add nsw i32 %83, 1
  store i32 %84, i32* %5, align 4
  br label %26

85:                                               ; preds = %26
  br label %86

86:                                               ; preds = %85
  %87 = load i32, i32* %6, align 4
  %88 = add nsw i32 %87, 1
  store i32 %88, i32* %6, align 4
  br label %20

89:                                               ; preds = %20
  %90 = getelementptr inbounds [11 x i32], [11 x i32]* %10, i64 0, i64 0
  %91 = load i32, i32* %90, align 16
  store i32 %91, i32* %8, align 4
  store i32 0, i32* %5, align 4
  br label %92

92:                                               ; preds = %104, %89
  %93 = load i32, i32* %5, align 4
  %94 = load i32, i32* %8, align 4
  %95 = icmp sle i32 %93, %94
  br i1 %95, label %96, label %107

96:                                               ; preds = %92
  %97 = load i8*, i8** %3, align 8
  %98 = load i32, i32* %5, align 4
  %99 = sext i32 %98 to i64
  %100 = getelementptr inbounds i8, i8* %97, i64 %99
  %101 = load i8, i8* %100, align 1
  %102 = sext i8 %101 to i32
  %103 = call i32 (i8*, ...) @printf(i8* getelementptr inbounds ([3 x i8], [3 x i8]* @.str, i64 0, i64 0), i32 %102)
  br label %104

104:                                              ; preds = %96
  %105 = load i32, i32* %5, align 4
  %106 = add nsw i32 %105, 1
  store i32 %106, i32* %5, align 4
  br label %92

107:                                              ; preds = %92
  %108 = load i8*, i8** %4, align 8
  %109 = call i32 (i8*, ...) @printf(i8* getelementptr inbounds ([3 x i8], [3 x i8]* @.str.1, i64 0, i64 0), i8* %108)
  %110 = load i32, i32* %8, align 4
  %111 = add nsw i32 %110, 1
  store i32 %111, i32* %5, align 4
  br label %112

112:                                              ; preds = %124, %107
  %113 = load i32, i32* %5, align 4
  %114 = load i32, i32* %9, align 4
  %115 = icmp slt i32 %113, %114
  br i1 %115, label %116, label %127

116:                                              ; preds = %112
  %117 = load i8*, i8** %3, align 8
  %118 = load i32, i32* %5, align 4
  %119 = sext i32 %118 to i64
  %120 = getelementptr inbounds i8, i8* %117, i64 %119
  %121 = load i8, i8* %120, align 1
  %122 = sext i8 %121 to i32
  %123 = call i32 (i8*, ...) @printf(i8* getelementptr inbounds ([3 x i8], [3 x i8]* @.str, i64 0, i64 0), i32 %122)
  br label %124

124:                                              ; preds = %116
  %125 = load i32, i32* %5, align 4
  %126 = add nsw i32 %125, 1
  store i32 %126, i32* %5, align 4
  br label %112

127:                                              ; preds = %112
  %128 = call i32 (i8*, ...) @printf(i8* getelementptr inbounds ([2 x i8], [2 x i8]* @.str.2, i64 0, i64 0))
  ret i32 0
}

; Function Attrs: argmemonly nounwind willreturn
declare void @llvm.memcpy.p0i8.p0i8.i64(i8* noalias nocapture writeonly, i8* noalias nocapture readonly, i64, i1 immarg) #1

; Function Attrs: nounwind readonly
declare dso_local i64 @strlen(i8*) #2

; Function Attrs: nounwind
declare dso_local i8* @strcpy(i8*, i8*) #3

declare dso_local i32 @printf(i8*, ...) #4

; Function Attrs: noinline nounwind uwtable
define dso_local i32 @main() #0 {
  %1 = alloca i32, align 4
  %2 = alloca [11 x i8], align 1
  %3 = alloca [4 x i8], align 1
  store i32 0, i32* %1, align 4
  br label %4

4:                                                ; preds = %9, %0
  %5 = getelementptr inbounds [11 x i8], [11 x i8]* %2, i64 0, i64 0
  %6 = getelementptr inbounds [4 x i8], [4 x i8]* %3, i64 0, i64 0
  %7 = call i32 (i8*, ...) @__isoc99_scanf(i8* getelementptr inbounds ([5 x i8], [5 x i8]* @.str.3, i64 0, i64 0), i8* %5, i8* %6)
  %8 = icmp ne i32 %7, -1
  br i1 %8, label %9, label %13

9:                                                ; preds = %4
  %10 = getelementptr inbounds [11 x i8], [11 x i8]* %2, i64 0, i64 0
  %11 = getelementptr inbounds [4 x i8], [4 x i8]* %3, i64 0, i64 0
  %12 = call i32 @plug(i8* %10, i8* %11)
  br label %4

13:                                               ; preds = %4
  ret i32 0
}

declare dso_local i32 @__isoc99_scanf(i8*, ...) #4


!llvm.module.flags = !{!0}
!llvm.ident = !{!1}

!0 = !{i32 1, !"wchar_size", i32 4}
!1 = !{!"clang version 10.0.0-4ubuntu1 "}
